(dp1
I70
(lp2
F0.56930697725174273
aF0.5726761513567985
aF0.55719714469098025
aF0.54359909321399447
aF0.56957579673604763
aF0.55428181303308366
aF0.59458089889364041
aF0.54990426022955707
aF0.56022672957562381
aF0.54961914204536599
aF0.56117024320237185
aF0.58685461511003212
aF0.54156207023782932
aF0.56938938891634028
aF0.55321266803335634
aF0.54592769703966504
aF0.58689363459323318
aF0.5469835108899056
aF0.5770198639402998
aF0.55497634664494944
asI40
(lp3
F0.68559934737834527
aF0.59568346814906348
aF0.62098918062575315
aF0.57119868156757758
aF0.54850754332035145
aF0.58149293128480306
aF0.57697415859141243
aF0.58848928390665256
aF0.55158344228216938
aF0.56331876998252062
aF0.53944639449423937
aF0.54996911515580849
aF0.56590441947287706
aF0.53114282831232595
aF0.57099712148625803
aF0.54339621422138618
aF0.58190079445534559
aF0.544829287427537
aF0.55935741992706944
aF0.57925100529447515
asI10
(lp4
F0.53533272033042101
aF0.54668678121363867
aF0.54021284935322211
aF0.56753311258681272
aF0.54795867331484527
aF0.57490095179131695
aF0.5396966274748457
aF0.59402746342598123
aF0.56128958945578722
aF0.56445399751054481
aF0.58129322782475901
aF0.55271848211897179
aF0.58045669312172743
aF0.55121033749681836
aF0.5793534796288673
aF0.55338540990301899
aF0.53805031167699935
aF0.55072136128202398
aF0.57570163239824013
aF0.58926414936146843
asI80
(lp5
F0.57908118024785471
aF0.59031360707384473
aF0.55702335783775814
aF0.59188159983208843
aF0.56199222422660666
aF0.74358132544984212
aF0.62183780365801877
aF0.57449686780888987
aF0.5988821831155331
aF0.55967930529979948
aF0.59930157661437988
aF0.56413102657236947
aF0.58314809900649045
aF0.5935736108333507
aF0.56713075333453244
aF0.585540771484375
aF0.56292714463903548
aF0.57608804296939931
aF0.55863987638595258
aF0.55170225589833366
asI50
(lp6
F0.54912962304784896
aF0.56703773457953266
aF0.54774553217786426
aF0.56266979461020616
aF0.57772931646793446
aF0.54246136482725749
aF0.57388714019288412
aF0.56146608007715104
aF0.59963404371383344
aF0.58928818905607183
aF0.61210791100846962
aF0.64184198480971311
aF0.61300647512395334
aF0.73871527834141504
aF0.5863619865255153
aF0.59003977065390734
aF0.56269701998284527
aF0.55480684118067969
aF0.56974016859176313
aF0.55339558073814876
asI20
(lp7
F0.52884670521350619
aF0.57290020902106098
aF0.55185611197288997
aF0.54375793071503331
aF0.55165640344011024
aF0.56234049289784538
aF0.57957715176521463
aF0.54397051385108464
aF0.57359342372163813
aF0.55746889114379883
aF0.57813157933823611
aF0.53657009753775087
aF0.55256232302239605
aF0.55336107598974349
aF0.57158941410957498
aF0.57390248014571821
aF0.55320944684617068
aF0.5669365132108648
aF0.5425728432675625
aF0.55704248712417925
asI90
(lp8
F0.57560327712525716
aF0.56234649394420866
aF0.60151343650006228
aF0.56872245605955729
aF0.57042597709818088
aF0.59940685617162826
aF0.57477993660784787
aF0.60808708819937196
aF0.59157675885139627
aF0.58597874134144889
aF0.58439358244550987
aF0.54331560845070692
aF0.61334165106428429
aF0.59772826762909581
aF0.62679854352423481
aF0.58708356796426975
aF0.58808862402084028
aF0.61094127310083268
aF0.56736147150080252
aF0.60084589998772808
asI60
(lp9
F0.58430517988002051
aF0.57108396164914399
aF0.59945753280152669
aF0.59425315451114735
aF0.62928949011133073
aF0.63511562854685677
aF0.58295172833381814
aF0.59106210952109484
aF0.55586037229984364
aF0.56010701808523622
aF0.54587038019870193
aF0.57368703598671766
aF0.59100407742439431
aF0.55735923888835504
aF0.5840628451489388
aF0.57422708957753288
aF0.56352171492069325
aF0.57970530936058529
aF0.57386223813320725
aF0.58208037437276638
asI30
(lp10
F0.55351011803809635
aF0.55206478402969683
aF0.56995953904821517
aF0.54178295744226335
aF0.57094776884038401
aF0.54825504789961144
aF0.55821068743441971
aF0.54119436284329026
aF0.5634347935940357
aF0.54568752836673817
aF0.58688094260844781
aF0.57714515543998557
aF0.56002880157308377
aF0.59318842786423709
aF0.53438202878262131
aF0.5741616969412946
aF0.55697398490094119
aF0.62009736324878451
aF0.5874290669218023
aF0.5694782835371951
as.