(dp1
I100
(lp2
F0.42164015769958496
aF0.37740111351013184
aF0.43074512481689453
aF0.37627506256103516
aF0.37596797943115234
asI70
(lp3
F0.27921009063720703
aF0.27928495407104492
aF0.32445693016052246
aF0.2809910774230957
aF0.27942800521850586
asI40
(lp4
F0.17403912544250488
aF0.17399501800537109
aF0.21915578842163086
aF0.21823501586914062
aF0.21703290939331055
asI10
(lp5
F0.0490570068359375
aF0.048845052719116211
aF0.049039840698242188
aF0.048903942108154297
aF0.048774003982543945
asI80
(lp6
F0.32135701179504395
aF0.36638283729553223
aF0.32248687744140625
aF0.32216286659240723
aF0.37070512771606445
asI50
(lp7
F0.25590801239013672
aF0.21529316902160645
aF0.21459603309631348
aF0.21401691436767578
aF0.21407604217529297
asI20
(lp8
F0.10272002220153809
aF0.10244512557983398
aF0.10242915153503418
aF0.1030421257019043
aF0.14385700225830078
asI90
(lp9
F0.36168599128723145
aF0.3608100414276123
aF0.40909194946289062
aF0.36116504669189453
aF0.36007189750671387
asI60
(lp10
F0.25104618072509766
aF0.25266480445861816
aF0.29554200172424316
aF0.25192999839782715
aF0.25219297409057617
asI30
(lp11
F0.1802670955657959
aF0.13645410537719727
aF0.13621091842651367
aF0.13669204711914062
aF0.13609194755554199
as.