(dp1
I70
(lp2
F1.2312180995941162
asI40
(lp3
F1.104255199432373
asI10
(lp4
F0.88077807426452637
asI80
(lp5
F1.2448720932006836
asI50
(lp6
F1.1373069286346436
asI20
(lp7
F1.0246150493621826
asI90
(lp8
F1.4301340579986572
asI60
(lp9
F1.1176121234893799
asI30
(lp10
F1.0426712036132812
as.